; Function Attrs: mustprogress nofree norecurse nosync nounwind willreturn memory(argmem: readwrite) uwtable
define hidden void @opj_write_bytes_BE(ptr noundef writeonly captures(none) %0, i32 noundef %1, i32 noundef %2) local_unnamed_addr #0 {
  %4 = alloca i32, align 4
  store i32 %1, ptr %4, align 4, !tbaa !3
  %5 = getelementptr inbounds nuw i8, ptr %4, i64 4
  %6 = zext i32 %2 to i64
  %7 = sub nsw i64 0, %6
  %8 = getelementptr inbounds i8, ptr %5, i64 %7
  call void @llvm.memcpy.p0.p0.i64(ptr align 1 %0, ptr nonnull align 1 %8, i64 %6, i1 false)
  ret void
}